target datalayout = "e-m:e-p270:32:32-p271:32:32-p272:64:64-i64:64-i128:128-f80:128-n8:16:32:64-S128"
target triple = "x86_64-pc-linux-gnu"

%struct._zval_struct = type { %union._zend_value, %union.anon, %union.anon.2 }
%union._zend_value = type { i64 }
%union.anon = type { i32 }
%union.anon.2 = type { i32 }
%struct._zend_execute_data = type { ptr, ptr, ptr, ptr, %struct._zval_struct, ptr, ptr, ptr, ptr }

; Function Attrs: nounwind uwtable
define hidden void @zif_abs(ptr noundef %0, ptr noundef %1) #0 {
  %3 = alloca ptr, align 8
  %4 = alloca ptr, align 8
  %5 = alloca ptr, align 8
  %6 = alloca ptr, align 8
  %7 = alloca i1, align 1
  %8 = alloca ptr, align 8
  %9 = alloca ptr, align 8
  %10 = alloca i8, align 1
  %11 = alloca i32, align 4
  %12 = alloca ptr, align 8
  %13 = alloca ptr, align 8
  %14 = alloca ptr, align 8
  %15 = alloca i32, align 4
  %16 = alloca i32, align 4
  %17 = alloca i32, align 4
  %18 = alloca i32, align 4
  %19 = alloca i32, align 4
  %20 = alloca ptr, align 8
  %21 = alloca ptr, align 8
  %22 = alloca i32, align 4
  %23 = alloca ptr, align 8
  %24 = alloca i8, align 1
  %25 = alloca i8, align 1
  %26 = alloca i32, align 4
  %27 = alloca ptr, align 8
  %28 = alloca ptr, align 8
  %29 = alloca ptr, align 8
  store ptr %0, ptr %12, align 8
  store ptr %1, ptr %13, align 8
  br label %30

30:                                               ; preds = %2
  store i32 0, ptr %15, align 4
  store i32 1, ptr %16, align 4
  store i32 1, ptr %17, align 4
  %31 = load ptr, ptr %12, align 8
  %32 = getelementptr inbounds %struct._zend_execute_data, ptr %31, i32 0, i32 4
  %33 = getelementptr inbounds %struct._zval_struct, ptr %32, i32 0, i32 2
  %34 = load i32, ptr %33, align 4
  store i32 %34, ptr %18, align 4
  store i32 0, ptr %19, align 4
  store ptr null, ptr %21, align 8
  store i32 0, ptr %22, align 4
  store ptr null, ptr %23, align 8
  store i8 0, ptr %24, align 1
  store i8 0, ptr %25, align 1
  store i32 0, ptr %26, align 4
  br label %35

35:                                               ; preds = %30
  %36 = load i32, ptr %18, align 4
  %37 = load i32, ptr %16, align 4
  %38 = icmp ult i32 %36, %37
  %39 = xor i1 %38, true
  %40 = xor i1 %39, true
  %41 = zext i1 %40 to i32
  %42 = sext i32 %41 to i64
  %43 = icmp ne i64 %42, 0
  br i1 %43, label %53, label %44

44:                                               ; preds = %35
  %45 = load i32, ptr %18, align 4
  %46 = load i32, ptr %17, align 4
  %47 = icmp ugt i32 %45, %46
  %48 = xor i1 %47, true
  %49 = xor i1 %48, true
  %50 = zext i1 %49 to i32
  %51 = sext i32 %50 to i64
  %52 = icmp ne i64 %51, 0
  br i1 %52, label %53, label %56

53:                                               ; preds = %44, %35
  %54 = load i32, ptr %16, align 4
  %55 = load i32, ptr %17, align 4
  call void @zend_wrong_parameters_count_error(i32 noundef %54, i32 noundef %55)
  store i32 1, ptr %26, align 4
  br label %154

56:                                               ; preds = %44
  %57 = load ptr, ptr %12, align 8
  %58 = getelementptr inbounds %struct._zval_struct, ptr %57, i64 4
  store ptr %58, ptr %20, align 8
  %59 = load i32, ptr %19, align 4
  %60 = add i32 %59, 1
  store i32 %60, ptr %19, align 4
  %61 = load i32, ptr %19, align 4
  %62 = load i32, ptr %16, align 4
  %63 = icmp ule i32 %61, %62
  br i1 %63, label %69, label %64

64:                                               ; preds = %56
  %65 = load i8, ptr %25, align 1
  %66 = trunc i8 %65 to i1
  %67 = zext i1 %66 to i32
  %68 = icmp eq i32 %67, 1
  br label %69

69:                                               ; preds = %64, %56
  %70 = phi i1 [ true, %56 ], [ %68, %64 ]
  call void @llvm.assume(i1 %70)
  %71 = load i32, ptr %19, align 4
  %72 = load i32, ptr %16, align 4
  %73 = icmp ugt i32 %71, %72
  br i1 %73, label %79, label %74

74:                                               ; preds = %69
  %75 = load i8, ptr %25, align 1
  %76 = trunc i8 %75 to i1
  %77 = zext i1 %76 to i32
  %78 = icmp eq i32 %77, 0
  br label %79

79:                                               ; preds = %74, %69
  %80 = phi i1 [ true, %69 ], [ %78, %74 ]
  call void @llvm.assume(i1 %80)
  %81 = load i8, ptr %25, align 1
  %82 = trunc i8 %81 to i1
  br i1 %82, label %83, label %94

83:                                               ; preds = %79
  %84 = load i32, ptr %19, align 4
  %85 = load i32, ptr %18, align 4
  %86 = icmp ugt i32 %84, %85
  %87 = xor i1 %86, true
  %88 = xor i1 %87, true
  %89 = zext i1 %88 to i32
  %90 = sext i32 %89 to i64
  %91 = icmp ne i64 %90, 0
  br i1 %91, label %92, label %93

92:                                               ; preds = %83
  br label %154

93:                                               ; preds = %83
  br label %94

94:                                               ; preds = %93, %79
  %95 = load ptr, ptr %20, align 8
  %96 = getelementptr inbounds %struct._zval_struct, ptr %95, i32 1
  store ptr %96, ptr %20, align 8
  %97 = load ptr, ptr %20, align 8
  store ptr %97, ptr %21, align 8
  %98 = load ptr, ptr %21, align 8
  %99 = load i32, ptr %19, align 4
  store ptr %98, ptr %8, align 8
  store ptr %14, ptr %9, align 8
  store i8 0, ptr %10, align 1
  store i32 %99, ptr %11, align 4
  %100 = load ptr, ptr %8, align 8
  store ptr %100, ptr %4, align 8
  %101 = load ptr, ptr %4, align 8
  %102 = getelementptr inbounds %struct._zval_struct, ptr %101, i32 0, i32 1
  %103 = load i8, ptr %102, align 8
  %104 = zext i8 %103 to i32
  %105 = icmp eq i32 %104, 4
  br i1 %105, label %113, label %106

106:                                              ; preds = %94
  %107 = load ptr, ptr %8, align 8
  store ptr %107, ptr %5, align 8
  %108 = load ptr, ptr %5, align 8
  %109 = getelementptr inbounds %struct._zval_struct, ptr %108, i32 0, i32 1
  %110 = load i8, ptr %109, align 8
  %111 = zext i8 %110 to i32
  %112 = icmp eq i32 %111, 5
  br label %113

113:                                              ; preds = %106, %94
  %114 = phi i1 [ true, %94 ], [ %112, %106 ]
  br i1 %114, label %115, label %118

115:                                              ; preds = %113
  %116 = load ptr, ptr %8, align 8
  %117 = load ptr, ptr %9, align 8
  store ptr %116, ptr %117, align 8
  br label %135

118:                                              ; preds = %113
  %119 = load i8, ptr %10, align 1
  %120 = trunc i8 %119 to i1
  br i1 %120, label %121, label %130

121:                                              ; preds = %118
  %122 = load ptr, ptr %8, align 8
  store ptr %122, ptr %6, align 8
  %123 = load ptr, ptr %6, align 8
  %124 = getelementptr inbounds %struct._zval_struct, ptr %123, i32 0, i32 1
  %125 = load i8, ptr %124, align 8
  %126 = zext i8 %125 to i32
  %127 = icmp eq i32 %126, 1
  br i1 %127, label %128, label %130

128:                                              ; preds = %121
  %129 = load ptr, ptr %9, align 8
  store ptr null, ptr %129, align 8
  br label %135

130:                                              ; preds = %121, %118
  %131 = load ptr, ptr %8, align 8
  %132 = load ptr, ptr %9, align 8
  %133 = load i32, ptr %11, align 4
  %134 = call zeroext i1 @zend_parse_arg_number_slow(ptr noundef %131, ptr noundef %132, i32 noundef %133) #12
  store i1 %134, ptr %7, align 1
  br label %136

135:                                              ; preds = %128, %115
  store i1 true, ptr %7, align 1
  br label %136

136:                                              ; preds = %135, %130
  %137 = load i1, ptr %7, align 1
  %138 = xor i1 %137, true
  %139 = xor i1 %138, true
  %140 = xor i1 %139, true
  %141 = zext i1 %140 to i32
  %142 = sext i32 %141 to i64
  %143 = icmp ne i64 %142, 0
  br i1 %143, label %144, label %145

144:                                              ; preds = %136
  store i32 22, ptr %22, align 4
  store i32 9, ptr %26, align 4
  br label %154

145:                                              ; preds = %136
  %146 = load i32, ptr %19, align 4
  %147 = load i32, ptr %17, align 4
  %148 = icmp eq i32 %146, %147
  br i1 %148, label %152, label %149

149:                                              ; preds = %145
  %150 = load i32, ptr %17, align 4
  %151 = icmp eq i32 %150, -1
  br label %152

152:                                              ; preds = %149, %145
  %153 = phi i1 [ true, %145 ], [ %151, %149 ]
  call void @llvm.assume(i1 %153)
  br label %154

154:                                              ; preds = %152, %144, %92, %53
  %155 = load i32, ptr %26, align 4
  %156 = icmp ne i32 %155, 0
  %157 = xor i1 %156, true
  %158 = xor i1 %157, true
  %159 = zext i1 %158 to i32
  %160 = sext i32 %159 to i64
  %161 = icmp ne i64 %160, 0
  br i1 %161, label %162, label %168

162:                                              ; preds = %154
  %163 = load i32, ptr %26, align 4
  %164 = load i32, ptr %19, align 4
  %165 = load ptr, ptr %23, align 8
  %166 = load i32, ptr %22, align 4
  %167 = load ptr, ptr %21, align 8
  call void @zend_wrong_parameter_error(i32 noundef %163, i32 noundef %164, ptr noundef %165, i32 noundef %166, ptr noundef %167)
  br label %236

168:                                              ; preds = %154
  br label %169

169:                                              ; preds = %168
  %170 = load ptr, ptr %14, align 8
  store ptr %170, ptr %3, align 8
  %171 = load ptr, ptr %3, align 8
  %172 = getelementptr inbounds %struct._zval_struct, ptr %171, i32 0, i32 1
  %173 = load i8, ptr %172, align 8
  %174 = zext i8 %173 to i32
  switch i32 %174, label %235 [
    i32 4, label %175
    i32 5, label %221
  ]

175:                                              ; preds = %169
  %176 = load ptr, ptr %14, align 8
  %177 = getelementptr inbounds %struct._zval_struct, ptr %176, i32 0, i32 0
  %178 = load i64, ptr %177, align 8
  %179 = icmp eq i64 %178, -9223372036854775808
  %180 = xor i1 %179, true
  %181 = xor i1 %180, true
  %182 = zext i1 %181 to i32
  %183 = sext i32 %182 to i64
  %184 = icmp ne i64 %183, 0
  br i1 %184, label %185, label %195

185:                                              ; preds = %175
  br label %186

186:                                              ; preds = %185
  br label %187

187:                                              ; preds = %186
  %188 = load ptr, ptr %13, align 8
  store ptr %188, ptr %27, align 8
  %189 = load ptr, ptr %27, align 8
  %190 = getelementptr inbounds %struct._zval_struct, ptr %189, i32 0, i32 0
  store double 0x43E0000000000000, ptr %190, align 8
  %191 = load ptr, ptr %27, align 8
  %192 = getelementptr inbounds %struct._zval_struct, ptr %191, i32 0, i32 1
  store i32 5, ptr %192, align 8
  br label %193

193:                                              ; preds = %187
  br label %236

194:                                              ; No predecessors!
  br label %220

195:                                              ; preds = %175
  br label %196

196:                                              ; preds = %195
  br label %197

197:                                              ; preds = %196
  %198 = load ptr, ptr %13, align 8
  store ptr %198, ptr %28, align 8
  %199 = load ptr, ptr %14, align 8
  %200 = getelementptr inbounds %struct._zval_struct, ptr %199, i32 0, i32 0
  %201 = load i64, ptr %200, align 8
  %202 = icmp slt i64 %201, 0
  br i1 %202, label %203, label %208

203:                                              ; preds = %197
  %204 = load ptr, ptr %14, align 8
  %205 = getelementptr inbounds %struct._zval_struct, ptr %204, i32 0, i32 0
  %206 = load i64, ptr %205, align 8
  %207 = sub nsw i64 0, %206
  br label %212

208:                                              ; preds = %197
  %209 = load ptr, ptr %14, align 8
  %210 = getelementptr inbounds %struct._zval_struct, ptr %209, i32 0, i32 0
  %211 = load i64, ptr %210, align 8
  br label %212

212:                                              ; preds = %208, %203
  %213 = phi i64 [ %207, %203 ], [ %211, %208 ]
  %214 = load ptr, ptr %28, align 8
  %215 = getelementptr inbounds %struct._zval_struct, ptr %214, i32 0, i32 0
  store i64 %213, ptr %215, align 8
  %216 = load ptr, ptr %28, align 8
  %217 = getelementptr inbounds %struct._zval_struct, ptr %216, i32 0, i32 1
  store i32 4, ptr %217, align 8
  br label %218

218:                                              ; preds = %212
  br label %236

219:                                              ; No predecessors!
  br label %220

220:                                              ; preds = %219, %194
  br label %221

221:                                              ; preds = %220, %169
  br label %222

222:                                              ; preds = %221
  br label %223

223:                                              ; preds = %222
  %224 = load ptr, ptr %13, align 8
  store ptr %224, ptr %29, align 8
  %225 = load ptr, ptr %14, align 8
  %226 = getelementptr inbounds %struct._zval_struct, ptr %225, i32 0, i32 0
  %227 = load double, ptr %226, align 8
  %228 = call double @llvm.fabs.f64(double %227)
  %229 = load ptr, ptr %29, align 8
  %230 = getelementptr inbounds %struct._zval_struct, ptr %229, i32 0, i32 0
  store double %228, ptr %230, align 8
  %231 = load ptr, ptr %29, align 8
  %232 = getelementptr inbounds %struct._zval_struct, ptr %231, i32 0, i32 1
  store i32 5, ptr %232, align 8
  br label %233

233:                                              ; preds = %223
  br label %236

234:                                              ; No predecessors!
  br label %235

235:                                              ; preds = %234, %169
  unreachable

236:                                              ; preds = %233, %218, %193, %162
  ret void
}