; Function Attrs: nounwind uwtable
define hidden void @zif_abs(ptr noundef %0, ptr nocapture noundef writeonly %1) local_unnamed_addr #0 {
  %3 = alloca ptr, align 8
  %4 = getelementptr inbounds i8, ptr %0, i64 44
  %5 = load i32, ptr %4, align 4
  %cond = icmp eq i32 %5, 1
  br i1 %cond, label %7, label %6

6:                                                ; preds = %2
  tail call void @zend_wrong_parameters_count_error(i32 noundef 1, i32 noundef 1) #15
  br label %.thread88

7:                                                ; preds = %2
  %8 = getelementptr inbounds i8, ptr %0, i64 80
  %9 = getelementptr inbounds i8, ptr %0, i64 88
  %10 = load i8, ptr %9, align 8
  %11 = and i8 %10, -2
  %switch65 = icmp eq i8 %11, 4
  br i1 %switch65, label %.thread77, label %12

.thread77:                                        ; preds = %7
  store ptr %8, ptr %3, align 8
  br label %.thread81

12:                                               ; preds = %7
  %13 = call zeroext i1 @zend_parse_arg_number_slow(ptr noundef nonnull %8, ptr noundef nonnull %3, i32 noundef 1) #15
  %.fr = freeze i1 %13
  br i1 %.fr, label %..thread81_crit_edge, label %.thread88

..thread81_crit_edge:                             ; preds = %12
  %.pre = load ptr, ptr %3, align 8
  br label %.thread81

.thread88:                                        ; preds = %12, %6
  %.05497 = phi i32 [ 0, %6 ], [ 1, %12 ]
  %.05596 = phi i32 [ 1, %6 ], [ 9, %12 ]
  %.05695 = phi ptr [ null, %6 ], [ %8, %12 ]
  %.05794 = phi i32 [ 0, %6 ], [ 22, %12 ]
  call void @zend_wrong_parameter_error(i32 noundef %.05596, i32 noundef %.05497, ptr noundef null, i32 noundef %.05794, ptr noundef %.05695) #15
  br label %29

.thread81:                                        ; preds = %..thread81_crit_edge, %.thread77
  %14 = phi ptr [ %.pre, %..thread81_crit_edge ], [ %8, %.thread77 ]
  %15 = getelementptr inbounds i8, ptr %14, i64 8
  %16 = load i8, ptr %15, align 8
  %switch = icmp eq i8 %16, 4
  br i1 %switch, label %17, label %25

17:                                               ; preds = %.thread81
  %18 = load i64, ptr %14, align 8
  %19 = icmp eq i64 %18, -9223372036854775808
  br i1 %19, label %20, label %22

20:                                               ; preds = %17
  store double 0x43E0000000000000, ptr %1, align 8
  %21 = getelementptr inbounds i8, ptr %1, i64 8
  store i32 5, ptr %21, align 8
  br label %29

22:                                               ; preds = %17
  %23 = call i64 @llvm.abs.i64(i64 %18, i1 true)
  store i64 %23, ptr %1, align 8
  %24 = getelementptr inbounds i8, ptr %1, i64 8
  store i32 4, ptr %24, align 8
  br label %29

25:                                               ; preds = %.thread81
  %26 = load double, ptr %14, align 8
  %27 = call double @llvm.fabs.f64(double %26)
  store double %27, ptr %1, align 8
  %28 = getelementptr inbounds i8, ptr %1, i64 8
  store i32 5, ptr %28, align 8
  br label %29

29:                                               ; preds = %25, %22, %20, %.thread88
  ret void
}